target datalayout = "e-m:e-p270:32:32-p271:32:32-p272:64:64-i64:64-i128:128-f80:128-n8:16:32:64-S128"
target triple = "x86_64-pc-linux-gnu"

%"class.icu_77::FieldPositionHandler" = type <{ ptr, i32, [4 x i8] }>
%"class.icu_77::FieldPositionHandler.base" = type <{ ptr, i32 }>
%"class.icu_77::FieldPositionIteratorHandler" = type { %"class.icu_77::FieldPositionHandler.base", ptr, ptr, i32, i32 }

; Function Attrs: mustprogress nounwind uwtable
define void @_ZN6icu_7720FieldPositionHandlerD2Ev(ptr noundef nonnull align 8 dereferenceable(12) %0) unnamed_addr #0 align 2 {
  %2 = alloca ptr, align 8
  store ptr %0, ptr %2, align 8, !tbaa !3
  ret void
}

; Function Attrs: inlinehint mustprogress nounwind uwtable
define internal noundef signext i8 @_ZL9U_SUCCESS10UErrorCode(i32 noundef %0) #2 {
  %2 = alloca i32, align 4
  store i32 %0, ptr %2, align 4, !tbaa !39
  %3 = load i32, ptr %2, align 4, !tbaa !39
  %4 = icmp sle i32 %3, 0
  %5 = zext i1 %4 to i8
  ret i8 %5
}

; Function Attrs: inlinehint mustprogress nounwind uwtable
define linkonce_odr void @_ZN6icu_7720FieldPositionHandlerC2Ev(ptr noundef nonnull align 8 dereferenceable(12) %0) unnamed_addr #2 comdat align 2 {
  %2 = alloca ptr, align 8
  store ptr %0, ptr %2, align 8, !tbaa !3
  %3 = load ptr, ptr %2, align 8
  store ptr getelementptr inbounds inrange(-16, 40) ({ [7 x ptr] }, ptr @_ZTVN6icu_7720FieldPositionHandlerE, i32 0, i32 0, i32 2), ptr %3, align 8, !tbaa !16
  %4 = getelementptr inbounds nuw %"class.icu_77::FieldPositionHandler", ptr %3, i32 0, i32 1
  store i32 0, ptr %4, align 8, !tbaa !10
  ret void
}

; Function Attrs: mustprogress uwtable
define void @_ZN6icu_7728FieldPositionIteratorHandlerC2EPNS_21FieldPositionIteratorER10UErrorCode(ptr noundef nonnull align 8 dereferenceable(40) %0, ptr noundef %1, ptr noundef nonnull align 4 dereferenceable(4) %2) unnamed_addr #4 align 2 personality ptr @__gxx_personality_v0 {
  %4 = alloca ptr, align 8
  %5 = alloca ptr, align 8
  %6 = alloca ptr, align 8
  %7 = alloca ptr, align 8
  %8 = alloca i32, align 4
  %9 = alloca ptr, align 8
  %10 = alloca i1, align 1
  store ptr %0, ptr %4, align 8, !tbaa !28
  store ptr %1, ptr %5, align 8, !tbaa !30
  store ptr %2, ptr %6, align 8, !tbaa !32
  %11 = load ptr, ptr %4, align 8
  call void @_ZN6icu_7720FieldPositionHandlerC2Ev(ptr noundef nonnull align 8 dereferenceable(12) %11) #10
  store ptr getelementptr inbounds inrange(-16, 40) ({ [7 x ptr] }, ptr @_ZTVN6icu_7728FieldPositionIteratorHandlerE, i32 0, i32 0, i32 2), ptr %11, align 8, !tbaa !16
  %12 = getelementptr inbounds nuw %"class.icu_77::FieldPositionIteratorHandler", ptr %11, i32 0, i32 1
  %13 = load ptr, ptr %5, align 8, !tbaa !30
  store ptr %13, ptr %12, align 8, !tbaa !33
  %14 = getelementptr inbounds nuw %"class.icu_77::FieldPositionIteratorHandler", ptr %11, i32 0, i32 2
  store ptr null, ptr %14, align 8, !tbaa !38
  %15 = getelementptr inbounds nuw %"class.icu_77::FieldPositionIteratorHandler", ptr %11, i32 0, i32 3
  %16 = load ptr, ptr %6, align 8, !tbaa !32
  %17 = load i32, ptr %16, align 4, !tbaa !39
  store i32 %17, ptr %15, align 8, !tbaa !40
  %18 = getelementptr inbounds nuw %"class.icu_77::FieldPositionIteratorHandler", ptr %11, i32 0, i32 4
  store i32 0, ptr %18, align 4, !tbaa !41
  %19 = getelementptr inbounds nuw %"class.icu_77::FieldPositionIteratorHandler", ptr %11, i32 0, i32 1
  %20 = load ptr, ptr %19, align 8, !tbaa !33
  %21 = icmp ne ptr %20, null
  br i1 %21, label %22, label %49

22:                                               ; preds = %3
  %23 = getelementptr inbounds nuw %"class.icu_77::FieldPositionIteratorHandler", ptr %11, i32 0, i32 3
  %24 = load i32, ptr %23, align 8, !tbaa !40
  %25 = invoke noundef signext i8 @_ZL9U_SUCCESS10UErrorCode(i32 noundef %24)
          to label %26 unwind label %37

26:                                               ; preds = %22
  %27 = icmp ne i8 %25, 0
  br i1 %27, label %28, label %49

28:                                               ; preds = %26
  %29 = call noundef ptr @_ZN6icu_777UMemorynwEm(i64 noundef 32) #10
  %30 = icmp eq ptr %29, null
  store i1 false, ptr %10, align 1
  br i1 %30, label %34, label %31

31:                                               ; preds = %28
  store ptr %29, ptr %9, align 8
  store i1 true, ptr %10, align 1
  %32 = getelementptr inbounds nuw %"class.icu_77::FieldPositionIteratorHandler", ptr %11, i32 0, i32 3
  invoke void @_ZN6icu_779UVector32C1ER10UErrorCode(ptr noundef nonnull align 8 dereferenceable(32) %29, ptr noundef nonnull align 4 dereferenceable(4) %32)
          to label %33 unwind label %41

33:                                               ; preds = %31
  br label %34

34:                                               ; preds = %33, %28
  %35 = phi ptr [ %29, %33 ], [ null, %28 ]
  %36 = getelementptr inbounds nuw %"class.icu_77::FieldPositionIteratorHandler", ptr %11, i32 0, i32 2
  store ptr %35, ptr %36, align 8, !tbaa !38
  br label %49

37:                                               ; preds = %22
  %38 = landingpad { ptr, i32 }
          cleanup
  %39 = extractvalue { ptr, i32 } %38, 0
  store ptr %39, ptr %7, align 8
  %40 = extractvalue { ptr, i32 } %38, 1
  store i32 %40, ptr %8, align 4
  br label %50

41:                                               ; preds = %31
  %42 = landingpad { ptr, i32 }
          cleanup
  %43 = extractvalue { ptr, i32 } %42, 0
  store ptr %43, ptr %7, align 8
  %44 = extractvalue { ptr, i32 } %42, 1
  store i32 %44, ptr %8, align 4
  %45 = load i1, ptr %10, align 1
  br i1 %45, label %46, label %48

46:                                               ; preds = %41
  %47 = load ptr, ptr %9, align 8
  call void @_ZN6icu_777UMemorydlEPv(ptr noundef %47) #10
  br label %48

48:                                               ; preds = %46, %41
  br label %50

49:                                               ; preds = %34, %26, %3
  ret void

50:                                               ; preds = %48, %37
  call void @_ZN6icu_7720FieldPositionHandlerD2Ev(ptr noundef nonnull align 8 dereferenceable(12) %11) #10
  br label %51

51:                                               ; preds = %50
  %52 = load ptr, ptr %7, align 8
  %53 = load i32, ptr %8, align 4
  %54 = insertvalue { ptr, i32 } poison, ptr %52, 0
  %55 = insertvalue { ptr, i32 } %54, i32 %53, 1
  resume { ptr, i32 } %55
}