; Function Attrs: mustprogress uwtable
define void @_ZN6icu_7728FieldPositionIteratorHandlerC2EPNS_21FieldPositionIteratorER10UErrorCode(ptr noundef nonnull align 8 dereferenceable(40) initializes((0, 12), (16, 40)) %0, ptr noundef %1, ptr noundef nonnull readonly align 4 captures(none) dereferenceable(4) %2) unnamed_addr #8 align 2 personality ptr @__gxx_personality_v0 {
  %4 = getelementptr inbounds nuw i8, ptr %0, i64 8
  store i32 0, ptr %4, align 8, !tbaa !3
  store ptr getelementptr inbounds nuw inrange(-16, 40) (i8, ptr @_ZTVN6icu_7728FieldPositionIteratorHandlerE, i64 16), ptr %0, align 8, !tbaa !8
  %5 = getelementptr inbounds nuw i8, ptr %0, i64 16
  store ptr %1, ptr %5, align 8, !tbaa !22
  %6 = getelementptr inbounds nuw i8, ptr %0, i64 24
  store ptr null, ptr %6, align 8, !tbaa !28
  %7 = getelementptr inbounds nuw i8, ptr %0, i64 32
  %8 = load i32, ptr %2, align 4, !tbaa !29
  store i32 %8, ptr %7, align 8, !tbaa !30
  %9 = getelementptr inbounds nuw i8, ptr %0, i64 36
  store i32 0, ptr %9, align 4, !tbaa !31
  %.not = icmp eq ptr %1, null
  %10 = icmp sgt i32 %8, 0
  %or.cond = select i1 %.not, i1 true, i1 %10
  br i1 %or.cond, label %18, label %11

11:                                               ; preds = %3
  %12 = tail call noundef ptr @_ZN6icu_777UMemorynwEm(i64 noundef 32) #15
  %13 = icmp eq ptr %12, null
  br i1 %13, label %15, label %14

14:                                               ; preds = %11
  invoke void @_ZN6icu_779UVector32C1ER10UErrorCode(ptr noundef nonnull align 8 dereferenceable(32) %12, ptr noundef nonnull align 4 dereferenceable(4) %7)
          to label %15 unwind label %16

15:                                               ; preds = %14, %11
  store ptr %12, ptr %6, align 8, !tbaa !28
  br label %18

16:                                               ; preds = %14
  %17 = landingpad { ptr, i32 }
          cleanup
  tail call void @_ZN6icu_777UMemorydlEPv(ptr noundef nonnull %12) #15
  resume { ptr, i32 } %17

18:                                               ; preds = %15, %3
  ret void
}